target datalayout = "e-m:e-p270:32:32-p271:32:32-p272:64:64-i64:64-i128:128-f80:128-n8:16:32:64-S128"
target triple = "x86_64-pc-linux-gnu"

%struct.IDAMemRec = type { ptr, double, ptr, ptr, i32, double, double, ptr, i32, i32, ptr, ptr, i32, i32, i32, ptr, ptr, i32, i32, double, double, ptr, i32, i32, i32, i32, ptr, ptr, i32, ptr, ptr, ptr, i32, double, i32, i32, double, ptr, ptr, ptr, i32, ptr, ptr, i32, i32, i32, double, ptr, ptr, ptr, [6 x ptr], [6 x double], [6 x double], [6 x double], [6 x double], [6 x double], ptr, ptr, ptr, ptr, ptr, ptr, ptr, ptr, ptr, ptr, ptr, ptr, ptr, ptr, ptr, ptr, ptr, [6 x ptr], ptr, ptr, ptr, ptr, [6 x ptr], ptr, ptr, ptr, ptr, ptr, ptr, ptr, ptr, ptr, ptr, ptr, ptr, ptr, ptr, ptr, ptr, [6 x ptr], ptr, ptr, ptr, ptr, ptr, double, ptr, ptr, i32, i32, i32, i32, i32, i32, i32, i32, double, double, double, i32, double, i32, i32, i32, i32, i32, double, double, double, double, double, double, double, double, double, double, double, double, double, double, double, double, double, i32, i32, i32, i32, i64, double, double, double, double, double, double, double, double, double, i64, i64, i64, i64, i64, i64, i64, i64, i64, i64, i64, i64, i64, i64, i64, i64, i64, i64, i64, i64, i64, i64, i64, i64, i64, i64, double, i32, i32, i32, i32, i32, i32, i32, i32, i32, i32, i32, i32, i32, ptr, i32, ptr, i32, ptr, i32, ptr, ptr, ptr, ptr, ptr, ptr, i32, i32, ptr, ptr, ptr, ptr, ptr, ptr, ptr, double, i32, i32, ptr, i32, ptr, ptr, double, double, double, ptr, ptr, ptr, double, double, i32, i32, i64, ptr, i32, ptr, [5 x double], ptr, ptr, i32, ptr, i32 }

; Function Attrs: nounwind uwtable
define internal i32 @IDASensEwtSetSV(ptr noundef %0, ptr noundef %1, ptr noundef %2) #0 {
  %4 = alloca i32, align 4
  %5 = alloca ptr, align 8
  %6 = alloca ptr, align 8
  %7 = alloca ptr, align 8
  %8 = alloca i32, align 4
  %9 = alloca i32, align 4
  store ptr %0, ptr %5, align 8, !tbaa !8
  store ptr %1, ptr %6, align 8, !tbaa !125
  store ptr %2, ptr %7, align 8, !tbaa !125
  call void @llvm.lifetime.start.p0(i64 4, ptr %8) #10
  store i32 0, ptr %8, align 4, !tbaa !114
  br label %10

10:                                               ; preds = %66, %3
  %11 = load i32, ptr %8, align 4, !tbaa !114
  %12 = load ptr, ptr %5, align 8, !tbaa !8
  %13 = getelementptr inbounds nuw %struct.IDAMemRec, ptr %12, i32 0, i32 24
  %14 = load i32, ptr %13, align 8, !tbaa !203
  %15 = icmp slt i32 %11, %14
  br i1 %15, label %16, label %69

16:                                               ; preds = %10
  %17 = load ptr, ptr %6, align 8, !tbaa !125
  %18 = load i32, ptr %8, align 4, !tbaa !114
  %19 = sext i32 %18 to i64
  %20 = getelementptr inbounds ptr, ptr %17, i64 %19
  %21 = load ptr, ptr %20, align 8, !tbaa !124
  %22 = load ptr, ptr %5, align 8, !tbaa !8
  %23 = getelementptr inbounds nuw %struct.IDAMemRec, ptr %22, i32 0, i32 66
  %24 = load ptr, ptr %23, align 8, !tbaa !186
  call void @N_VAbs(ptr noundef %21, ptr noundef %24)
  %25 = load ptr, ptr %5, align 8, !tbaa !8
  %26 = getelementptr inbounds nuw %struct.IDAMemRec, ptr %25, i32 0, i32 36
  %27 = load double, ptr %26, align 8, !tbaa !224
  %28 = load ptr, ptr %5, align 8, !tbaa !8
  %29 = getelementptr inbounds nuw %struct.IDAMemRec, ptr %28, i32 0, i32 66
  %30 = load ptr, ptr %29, align 8, !tbaa !186
  %31 = load ptr, ptr %5, align 8, !tbaa !8
  %32 = getelementptr inbounds nuw %struct.IDAMemRec, ptr %31, i32 0, i32 38
  %33 = load ptr, ptr %32, align 8, !tbaa !221
  %34 = load i32, ptr %8, align 4, !tbaa !114
  %35 = sext i32 %34 to i64
  %36 = getelementptr inbounds ptr, ptr %33, i64 %35
  %37 = load ptr, ptr %36, align 8, !tbaa !124
  %38 = load ptr, ptr %5, align 8, !tbaa !8
  %39 = getelementptr inbounds nuw %struct.IDAMemRec, ptr %38, i32 0, i32 66
  %40 = load ptr, ptr %39, align 8, !tbaa !186
  call void @N_VLinearSum(double noundef %27, ptr noundef %30, double noundef 1.000000e+00, ptr noundef %37, ptr noundef %40)
  %41 = load ptr, ptr %5, align 8, !tbaa !8
  %42 = getelementptr inbounds nuw %struct.IDAMemRec, ptr %41, i32 0, i32 39
  %43 = load ptr, ptr %42, align 8, !tbaa !74
  %44 = load i32, ptr %8, align 4, !tbaa !114
  %45 = sext i32 %44 to i64
  %46 = getelementptr inbounds i32, ptr %43, i64 %45
  %47 = load i32, ptr %46, align 4, !tbaa !114
  %48 = icmp ne i32 %47, 0
  br i1 %48, label %49, label %57

49:                                               ; preds = %16
  %50 = load ptr, ptr %5, align 8, !tbaa !8
  %51 = getelementptr inbounds nuw %struct.IDAMemRec, ptr %50, i32 0, i32 66
  %52 = load ptr, ptr %51, align 8, !tbaa !186
  %53 = call double @N_VMin(ptr noundef %52)
  %54 = fcmp ole double %53, 0.000000e+00
  br i1 %54, label %55, label %56

55:                                               ; preds = %49
  store i32 -1, ptr %4, align 4
  store i32 1, ptr %9, align 4
  br label %70

56:                                               ; preds = %49
  br label %57

57:                                               ; preds = %56, %16
  %58 = load ptr, ptr %5, align 8, !tbaa !8
  %59 = getelementptr inbounds nuw %struct.IDAMemRec, ptr %58, i32 0, i32 66
  %60 = load ptr, ptr %59, align 8, !tbaa !186
  %61 = load ptr, ptr %7, align 8, !tbaa !125
  %62 = load i32, ptr %8, align 4, !tbaa !114
  %63 = sext i32 %62 to i64
  %64 = getelementptr inbounds ptr, ptr %61, i64 %63
  %65 = load ptr, ptr %64, align 8, !tbaa !124
  call void @N_VInv(ptr noundef %60, ptr noundef %65)
  br label %66

66:                                               ; preds = %57
  %67 = load i32, ptr %8, align 4, !tbaa !114
  %68 = add nsw i32 %67, 1
  store i32 %68, ptr %8, align 4, !tbaa !114
  br label %10

69:                                               ; preds = %10
  store i32 0, ptr %4, align 4
  store i32 1, ptr %9, align 4
  br label %70

70:                                               ; preds = %69, %55
  call void @llvm.lifetime.end.p0(i64 4, ptr %8) #10
  %71 = load i32, ptr %4, align 4
  ret i32 %71
}

; Function Attrs: nounwind uwtable
define internal i32 @IDASensEwtSetSS(ptr noundef %0, ptr noundef %1, ptr noundef %2) #0 {
  %4 = alloca i32, align 4
  %5 = alloca ptr, align 8
  %6 = alloca ptr, align 8
  %7 = alloca ptr, align 8
  %8 = alloca i32, align 4
  %9 = alloca i32, align 4
  store ptr %0, ptr %5, align 8, !tbaa !8
  store ptr %1, ptr %6, align 8, !tbaa !125
  store ptr %2, ptr %7, align 8, !tbaa !125
  call void @llvm.lifetime.start.p0(i64 4, ptr %8) #10
  store i32 0, ptr %8, align 4, !tbaa !114
  br label %10

10:                                               ; preds = %72, %3
  %11 = load i32, ptr %8, align 4, !tbaa !114
  %12 = load ptr, ptr %5, align 8, !tbaa !8
  %13 = getelementptr inbounds nuw %struct.IDAMemRec, ptr %12, i32 0, i32 24
  %14 = load i32, ptr %13, align 8, !tbaa !203
  %15 = icmp slt i32 %11, %14
  br i1 %15, label %16, label %75

16:                                               ; preds = %10
  %17 = load ptr, ptr %6, align 8, !tbaa !125
  %18 = load i32, ptr %8, align 4, !tbaa !114
  %19 = sext i32 %18 to i64
  %20 = getelementptr inbounds ptr, ptr %17, i64 %19
  %21 = load ptr, ptr %20, align 8, !tbaa !124
  %22 = load ptr, ptr %5, align 8, !tbaa !8
  %23 = getelementptr inbounds nuw %struct.IDAMemRec, ptr %22, i32 0, i32 66
  %24 = load ptr, ptr %23, align 8, !tbaa !186
  call void @N_VAbs(ptr noundef %21, ptr noundef %24)
  %25 = load ptr, ptr %5, align 8, !tbaa !8
  %26 = getelementptr inbounds nuw %struct.IDAMemRec, ptr %25, i32 0, i32 36
  %27 = load double, ptr %26, align 8, !tbaa !224
  %28 = load ptr, ptr %5, align 8, !tbaa !8
  %29 = getelementptr inbounds nuw %struct.IDAMemRec, ptr %28, i32 0, i32 66
  %30 = load ptr, ptr %29, align 8, !tbaa !186
  %31 = load ptr, ptr %5, align 8, !tbaa !8
  %32 = getelementptr inbounds nuw %struct.IDAMemRec, ptr %31, i32 0, i32 66
  %33 = load ptr, ptr %32, align 8, !tbaa !186
  call void @N_VScale(double noundef %27, ptr noundef %30, ptr noundef %33)
  %34 = load ptr, ptr %5, align 8, !tbaa !8
  %35 = getelementptr inbounds nuw %struct.IDAMemRec, ptr %34, i32 0, i32 66
  %36 = load ptr, ptr %35, align 8, !tbaa !186
  %37 = load ptr, ptr %5, align 8, !tbaa !8
  %38 = getelementptr inbounds nuw %struct.IDAMemRec, ptr %37, i32 0, i32 37
  %39 = load ptr, ptr %38, align 8, !tbaa !222
  %40 = load i32, ptr %8, align 4, !tbaa !114
  %41 = sext i32 %40 to i64
  %42 = getelementptr inbounds double, ptr %39, i64 %41
  %43 = load double, ptr %42, align 8, !tbaa !123
  %44 = load ptr, ptr %5, align 8, !tbaa !8
  %45 = getelementptr inbounds nuw %struct.IDAMemRec, ptr %44, i32 0, i32 66
  %46 = load ptr, ptr %45, align 8, !tbaa !186
  call void @N_VAddConst(ptr noundef %36, double noundef %43, ptr noundef %46)
  %47 = load ptr, ptr %5, align 8, !tbaa !8
  %48 = getelementptr inbounds nuw %struct.IDAMemRec, ptr %47, i32 0, i32 39
  %49 = load ptr, ptr %48, align 8, !tbaa !74
  %50 = load i32, ptr %8, align 4, !tbaa !114
  %51 = sext i32 %50 to i64
  %52 = getelementptr inbounds i32, ptr %49, i64 %51
  %53 = load i32, ptr %52, align 4, !tbaa !114
  %54 = icmp ne i32 %53, 0
  br i1 %54, label %55, label %63

55:                                               ; preds = %16
  %56 = load ptr, ptr %5, align 8, !tbaa !8
  %57 = getelementptr inbounds nuw %struct.IDAMemRec, ptr %56, i32 0, i32 66
  %58 = load ptr, ptr %57, align 8, !tbaa !186
  %59 = call double @N_VMin(ptr noundef %58)
  %60 = fcmp ole double %59, 0.000000e+00
  br i1 %60, label %61, label %62

61:                                               ; preds = %55
  store i32 -1, ptr %4, align 4
  store i32 1, ptr %9, align 4
  br label %76

62:                                               ; preds = %55
  br label %63

63:                                               ; preds = %62, %16
  %64 = load ptr, ptr %5, align 8, !tbaa !8
  %65 = getelementptr inbounds nuw %struct.IDAMemRec, ptr %64, i32 0, i32 66
  %66 = load ptr, ptr %65, align 8, !tbaa !186
  %67 = load ptr, ptr %7, align 8, !tbaa !125
  %68 = load i32, ptr %8, align 4, !tbaa !114
  %69 = sext i32 %68 to i64
  %70 = getelementptr inbounds ptr, ptr %67, i64 %69
  %71 = load ptr, ptr %70, align 8, !tbaa !124
  call void @N_VInv(ptr noundef %66, ptr noundef %71)
  br label %72

72:                                               ; preds = %63
  %73 = load i32, ptr %8, align 4, !tbaa !114
  %74 = add nsw i32 %73, 1
  store i32 %74, ptr %8, align 4, !tbaa !114
  br label %10

75:                                               ; preds = %10
  store i32 0, ptr %4, align 4
  store i32 1, ptr %9, align 4
  br label %76

76:                                               ; preds = %75, %61
  call void @llvm.lifetime.end.p0(i64 4, ptr %8) #10
  %77 = load i32, ptr %4, align 4
  ret i32 %77
}

; Function Attrs: nounwind uwtable
define internal i32 @IDASensEwtSetEE(ptr noundef %0, ptr noundef %1, ptr noundef %2) #0 {
  %4 = alloca i32, align 4
  %5 = alloca ptr, align 8
  %6 = alloca ptr, align 8
  %7 = alloca ptr, align 8
  %8 = alloca i32, align 4
  %9 = alloca ptr, align 8
  %10 = alloca i32, align 4
  %11 = alloca i32, align 4
  store ptr %0, ptr %5, align 8, !tbaa !8
  store ptr %1, ptr %6, align 8, !tbaa !125
  store ptr %2, ptr %7, align 8, !tbaa !125
  call void @llvm.lifetime.start.p0(i64 4, ptr %8) #10
  call void @llvm.lifetime.start.p0(i64 8, ptr %9) #10
  call void @llvm.lifetime.start.p0(i64 4, ptr %10) #10
  %12 = load ptr, ptr %5, align 8, !tbaa !8
  %13 = getelementptr inbounds nuw %struct.IDAMemRec, ptr %12, i32 0, i32 66
  %14 = load ptr, ptr %13, align 8, !tbaa !186
  store ptr %14, ptr %9, align 8, !tbaa !124
  store i32 0, ptr %8, align 4, !tbaa !114
  br label %15

15:                                               ; preds = %69, %3
  %16 = load i32, ptr %8, align 4, !tbaa !114
  %17 = load ptr, ptr %5, align 8, !tbaa !8
  %18 = getelementptr inbounds nuw %struct.IDAMemRec, ptr %17, i32 0, i32 24
  %19 = load i32, ptr %18, align 8, !tbaa !203
  %20 = icmp slt i32 %16, %19
  br i1 %20, label %21, label %72

21:                                               ; preds = %15
  %22 = load ptr, ptr %5, align 8, !tbaa !8
  %23 = getelementptr inbounds nuw %struct.IDAMemRec, ptr %22, i32 0, i32 30
  %24 = load ptr, ptr %23, align 8, !tbaa !70
  %25 = load i32, ptr %8, align 4, !tbaa !114
  %26 = sext i32 %25 to i64
  %27 = getelementptr inbounds double, ptr %24, i64 %26
  %28 = load double, ptr %27, align 8, !tbaa !123
  %29 = load ptr, ptr %6, align 8, !tbaa !125
  %30 = load i32, ptr %8, align 4, !tbaa !114
  %31 = sext i32 %30 to i64
  %32 = getelementptr inbounds ptr, ptr %29, i64 %31
  %33 = load ptr, ptr %32, align 8, !tbaa !124
  %34 = load ptr, ptr %9, align 8, !tbaa !124
  call void @N_VScale(double noundef %28, ptr noundef %33, ptr noundef %34)
  %35 = load ptr, ptr %5, align 8, !tbaa !8
  %36 = getelementptr inbounds nuw %struct.IDAMemRec, ptr %35, i32 0, i32 10
  %37 = load ptr, ptr %36, align 8, !tbaa !27
  %38 = load ptr, ptr %9, align 8, !tbaa !124
  %39 = load ptr, ptr %7, align 8, !tbaa !125
  %40 = load i32, ptr %8, align 4, !tbaa !114
  %41 = sext i32 %40 to i64
  %42 = getelementptr inbounds ptr, ptr %39, i64 %41
  %43 = load ptr, ptr %42, align 8, !tbaa !124
  %44 = load ptr, ptr %5, align 8, !tbaa !8
  %45 = getelementptr inbounds nuw %struct.IDAMemRec, ptr %44, i32 0, i32 11
  %46 = load ptr, ptr %45, align 8, !tbaa !28
  %47 = call i32 %37(ptr noundef %38, ptr noundef %43, ptr noundef %46)
  store i32 %47, ptr %10, align 4, !tbaa !114
  %48 = load i32, ptr %10, align 4, !tbaa !114
  %49 = icmp ne i32 %48, 0
  br i1 %49, label %50, label %51

50:                                               ; preds = %21
  store i32 -1, ptr %4, align 4
  store i32 1, ptr %11, align 4
  br label %73

51:                                               ; preds = %21
  %52 = load ptr, ptr %5, align 8, !tbaa !8
  %53 = getelementptr inbounds nuw %struct.IDAMemRec, ptr %52, i32 0, i32 30
  %54 = load ptr, ptr %53, align 8, !tbaa !70
  %55 = load i32, ptr %8, align 4, !tbaa !114
  %56 = sext i32 %55 to i64
  %57 = getelementptr inbounds double, ptr %54, i64 %56
  %58 = load double, ptr %57, align 8, !tbaa !123
  %59 = load ptr, ptr %7, align 8, !tbaa !125
  %60 = load i32, ptr %8, align 4, !tbaa !114
  %61 = sext i32 %60 to i64
  %62 = getelementptr inbounds ptr, ptr %59, i64 %61
  %63 = load ptr, ptr %62, align 8, !tbaa !124
  %64 = load ptr, ptr %7, align 8, !tbaa !125
  %65 = load i32, ptr %8, align 4, !tbaa !114
  %66 = sext i32 %65 to i64
  %67 = getelementptr inbounds ptr, ptr %64, i64 %66
  %68 = load ptr, ptr %67, align 8, !tbaa !124
  call void @N_VScale(double noundef %58, ptr noundef %63, ptr noundef %68)
  br label %69

69:                                               ; preds = %51
  %70 = load i32, ptr %8, align 4, !tbaa !114
  %71 = add nsw i32 %70, 1
  store i32 %71, ptr %8, align 4, !tbaa !114
  br label %15

72:                                               ; preds = %15
  store i32 0, ptr %4, align 4
  store i32 1, ptr %11, align 4
  br label %73

73:                                               ; preds = %72, %50
  call void @llvm.lifetime.end.p0(i64 4, ptr %10) #10
  call void @llvm.lifetime.end.p0(i64 8, ptr %9) #10
  call void @llvm.lifetime.end.p0(i64 4, ptr %8) #10
  %74 = load i32, ptr %4, align 4
  ret i32 %74
}

; Function Attrs: nounwind uwtable
define i32 @IDASensEwtSet(ptr noundef %0, ptr noundef %1, ptr noundef %2) #0 {
  %4 = alloca ptr, align 8
  %5 = alloca ptr, align 8
  %6 = alloca ptr, align 8
  %7 = alloca i32, align 4
  store ptr %0, ptr %4, align 8, !tbaa !8
  store ptr %1, ptr %5, align 8, !tbaa !125
  store ptr %2, ptr %6, align 8, !tbaa !125
  call void @llvm.lifetime.start.p0(i64 4, ptr %7) #10
  store i32 0, ptr %7, align 4, !tbaa !114
  %8 = load ptr, ptr %4, align 8, !tbaa !8
  %9 = getelementptr inbounds nuw %struct.IDAMemRec, ptr %8, i32 0, i32 35
  %10 = load i32, ptr %9, align 4, !tbaa !73
  switch i32 %10, label %26 [
    i32 4, label %11
    i32 1, label %16
    i32 2, label %21
  ]

11:                                               ; preds = %3
  %12 = load ptr, ptr %4, align 8, !tbaa !8
  %13 = load ptr, ptr %5, align 8, !tbaa !125
  %14 = load ptr, ptr %6, align 8, !tbaa !125
  %15 = call i32 @IDASensEwtSetEE(ptr noundef %12, ptr noundef %13, ptr noundef %14)
  store i32 %15, ptr %7, align 4, !tbaa !114
  br label %26

16:                                               ; preds = %3
  %17 = load ptr, ptr %4, align 8, !tbaa !8
  %18 = load ptr, ptr %5, align 8, !tbaa !125
  %19 = load ptr, ptr %6, align 8, !tbaa !125
  %20 = call i32 @IDASensEwtSetSS(ptr noundef %17, ptr noundef %18, ptr noundef %19)
  store i32 %20, ptr %7, align 4, !tbaa !114
  br label %26

21:                                               ; preds = %3
  %22 = load ptr, ptr %4, align 8, !tbaa !8
  %23 = load ptr, ptr %5, align 8, !tbaa !125
  %24 = load ptr, ptr %6, align 8, !tbaa !125
  %25 = call i32 @IDASensEwtSetSV(ptr noundef %22, ptr noundef %23, ptr noundef %24)
  store i32 %25, ptr %7, align 4, !tbaa !114
  br label %26

26:                                               ; preds = %3, %21, %16, %11
  %27 = load i32, ptr %7, align 4, !tbaa !114
  call void @llvm.lifetime.end.p0(i64 4, ptr %7) #10
  ret i32 %27
}