; Function Attrs: nounwind uwtable
define range(i32 -1, 1) i32 @IDASensEwtSet(ptr noundef readonly captures(none) %0, ptr noundef readonly captures(none) %1, ptr noundef readonly captures(none) %2) local_unnamed_addr #0 {
  %4 = getelementptr inbounds nuw i8, ptr %0, i64 236
  %5 = load i32, ptr %4, align 4, !tbaa !52
  switch i32 %5, label %IDASensEwtSetEE.exit [
    i32 4, label %6
    i32 1, label %34
    i32 2, label %66
  ]

6:                                                ; preds = %3
  %7 = getelementptr inbounds nuw i8, ptr %0, i64 712
  %8 = load ptr, ptr %7, align 8, !tbaa !119
  %9 = getelementptr inbounds nuw i8, ptr %0, i64 200
  %10 = getelementptr inbounds nuw i8, ptr %0, i64 160
  %11 = load i32, ptr %10, align 8, !tbaa !167
  %12 = icmp sgt i32 %11, 0
  br i1 %12, label %.lr.ph.i, label %IDASensEwtSetEE.exit

.lr.ph.i:                                         ; preds = %6
  %13 = getelementptr inbounds nuw i8, ptr %0, i64 72
  %14 = getelementptr inbounds nuw i8, ptr %0, i64 80
  br label %15

15:                                               ; preds = %26, %.lr.ph.i
  %indvars.iv.i = phi i64 [ 0, %.lr.ph.i ], [ %indvars.iv.next.i, %26 ]
  %16 = load ptr, ptr %9, align 8, !tbaa !86
  %17 = getelementptr inbounds nuw double, ptr %16, i64 %indvars.iv.i
  %18 = load double, ptr %17, align 8, !tbaa !87
  %19 = getelementptr inbounds nuw ptr, ptr %1, i64 %indvars.iv.i
  %20 = load ptr, ptr %19, align 8, !tbaa !83
  tail call void @N_VScale(double noundef %18, ptr noundef %20, ptr noundef %8) #14
  %21 = load ptr, ptr %13, align 8, !tbaa !152
  %22 = getelementptr inbounds nuw ptr, ptr %2, i64 %indvars.iv.i
  %23 = load ptr, ptr %22, align 8, !tbaa !83
  %24 = load ptr, ptr %14, align 8, !tbaa !153
  %25 = tail call i32 %21(ptr noundef %8, ptr noundef %23, ptr noundef %24) #14
  %.not.i = icmp eq i32 %25, 0
  br i1 %.not.i, label %26, label %IDASensEwtSetEE.exit

26:                                               ; preds = %15
  %27 = load ptr, ptr %9, align 8, !tbaa !86
  %28 = getelementptr inbounds nuw double, ptr %27, i64 %indvars.iv.i
  %29 = load double, ptr %28, align 8, !tbaa !87
  %30 = load ptr, ptr %22, align 8, !tbaa !83
  tail call void @N_VScale(double noundef %29, ptr noundef %30, ptr noundef %30) #14
  %indvars.iv.next.i = add nuw nsw i64 %indvars.iv.i, 1
  %31 = load i32, ptr %10, align 8, !tbaa !167
  %32 = sext i32 %31 to i64
  %33 = icmp slt i64 %indvars.iv.next.i, %32
  br i1 %33, label %15, label %IDASensEwtSetEE.exit

34:                                               ; preds = %3
  %35 = getelementptr inbounds nuw i8, ptr %0, i64 160
  %36 = load i32, ptr %35, align 8, !tbaa !167
  %37 = icmp sgt i32 %36, 0
  br i1 %37, label %.lr.ph.i10, label %IDASensEwtSetEE.exit

.lr.ph.i10:                                       ; preds = %34
  %38 = getelementptr inbounds nuw i8, ptr %0, i64 712
  %39 = getelementptr inbounds nuw i8, ptr %0, i64 240
  %40 = getelementptr inbounds nuw i8, ptr %0, i64 248
  %41 = getelementptr inbounds nuw i8, ptr %0, i64 264
  br label %42

42:                                               ; preds = %59, %.lr.ph.i10
  %indvars.iv.i11 = phi i64 [ 0, %.lr.ph.i10 ], [ %indvars.iv.next.i13, %59 ]
  %43 = getelementptr inbounds nuw ptr, ptr %1, i64 %indvars.iv.i11
  %44 = load ptr, ptr %43, align 8, !tbaa !83
  %45 = load ptr, ptr %38, align 8, !tbaa !119
  tail call void @N_VAbs(ptr noundef %44, ptr noundef %45) #14
  %46 = load double, ptr %39, align 8, !tbaa !190
  %47 = load ptr, ptr %38, align 8, !tbaa !119
  tail call void @N_VScale(double noundef %46, ptr noundef %47, ptr noundef %47) #14
  %48 = load ptr, ptr %38, align 8, !tbaa !119
  %49 = load ptr, ptr %40, align 8, !tbaa !189
  %50 = getelementptr inbounds nuw double, ptr %49, i64 %indvars.iv.i11
  %51 = load double, ptr %50, align 8, !tbaa !87
  tail call void @N_VAddConst(ptr noundef %48, double noundef %51, ptr noundef %48) #14
  %52 = load ptr, ptr %41, align 8, !tbaa !53
  %53 = getelementptr inbounds nuw i32, ptr %52, i64 %indvars.iv.i11
  %54 = load i32, ptr %53, align 4, !tbaa !85
  %.not.i12 = icmp eq i32 %54, 0
  br i1 %.not.i12, label %59, label %55

55:                                               ; preds = %42
  %56 = load ptr, ptr %38, align 8, !tbaa !119
  %57 = tail call double @N_VMin(ptr noundef %56) #14
  %58 = fcmp ugt double %57, 0.000000e+00
  br i1 %58, label %59, label %IDASensEwtSetEE.exit

59:                                               ; preds = %55, %42
  %60 = load ptr, ptr %38, align 8, !tbaa !119
  %61 = getelementptr inbounds nuw ptr, ptr %2, i64 %indvars.iv.i11
  %62 = load ptr, ptr %61, align 8, !tbaa !83
  tail call void @N_VInv(ptr noundef %60, ptr noundef %62) #14
  %indvars.iv.next.i13 = add nuw nsw i64 %indvars.iv.i11, 1
  %63 = load i32, ptr %35, align 8, !tbaa !167
  %64 = sext i32 %63 to i64
  %65 = icmp slt i64 %indvars.iv.next.i13, %64
  br i1 %65, label %42, label %IDASensEwtSetEE.exit

66:                                               ; preds = %3
  %67 = getelementptr inbounds nuw i8, ptr %0, i64 160
  %68 = load i32, ptr %67, align 8, !tbaa !167
  %69 = icmp sgt i32 %68, 0
  br i1 %69, label %.lr.ph.i14, label %IDASensEwtSetEE.exit

.lr.ph.i14:                                       ; preds = %66
  %70 = getelementptr inbounds nuw i8, ptr %0, i64 712
  %71 = getelementptr inbounds nuw i8, ptr %0, i64 240
  %72 = getelementptr inbounds nuw i8, ptr %0, i64 256
  %73 = getelementptr inbounds nuw i8, ptr %0, i64 264
  br label %74

74:                                               ; preds = %90, %.lr.ph.i14
  %indvars.iv.i15 = phi i64 [ 0, %.lr.ph.i14 ], [ %indvars.iv.next.i17, %90 ]
  %75 = getelementptr inbounds nuw ptr, ptr %1, i64 %indvars.iv.i15
  %76 = load ptr, ptr %75, align 8, !tbaa !83
  %77 = load ptr, ptr %70, align 8, !tbaa !119
  tail call void @N_VAbs(ptr noundef %76, ptr noundef %77) #14
  %78 = load double, ptr %71, align 8, !tbaa !190
  %79 = load ptr, ptr %70, align 8, !tbaa !119
  %80 = load ptr, ptr %72, align 8, !tbaa !187
  %81 = getelementptr inbounds nuw ptr, ptr %80, i64 %indvars.iv.i15
  %82 = load ptr, ptr %81, align 8, !tbaa !83
  tail call void @N_VLinearSum(double noundef %78, ptr noundef %79, double noundef 1.000000e+00, ptr noundef %82, ptr noundef %79) #14
  %83 = load ptr, ptr %73, align 8, !tbaa !53
  %84 = getelementptr inbounds nuw i32, ptr %83, i64 %indvars.iv.i15
  %85 = load i32, ptr %84, align 4, !tbaa !85
  %.not.i16 = icmp eq i32 %85, 0
  br i1 %.not.i16, label %90, label %86

86:                                               ; preds = %74
  %87 = load ptr, ptr %70, align 8, !tbaa !119
  %88 = tail call double @N_VMin(ptr noundef %87) #14
  %89 = fcmp ugt double %88, 0.000000e+00
  br i1 %89, label %90, label %IDASensEwtSetEE.exit

90:                                               ; preds = %86, %74
  %91 = load ptr, ptr %70, align 8, !tbaa !119
  %92 = getelementptr inbounds nuw ptr, ptr %2, i64 %indvars.iv.i15
  %93 = load ptr, ptr %92, align 8, !tbaa !83
  tail call void @N_VInv(ptr noundef %91, ptr noundef %93) #14
  %indvars.iv.next.i17 = add nuw nsw i64 %indvars.iv.i15, 1
  %94 = load i32, ptr %67, align 8, !tbaa !167
  %95 = sext i32 %94 to i64
  %96 = icmp slt i64 %indvars.iv.next.i17, %95
  br i1 %96, label %74, label %IDASensEwtSetEE.exit

IDASensEwtSetEE.exit:                             ; preds = %90, %86, %59, %55, %26, %15, %66, %34, %6, %3
  %.0 = phi i32 [ 0, %3 ], [ 0, %6 ], [ 0, %34 ], [ 0, %66 ], [ -1, %15 ], [ 0, %26 ], [ -1, %55 ], [ 0, %59 ], [ -1, %86 ], [ 0, %90 ]
  ret i32 %.0
}